; Function Attrs: nounwind uwtable
define ptr @l___private_Lean_Meta_CongrTheorems_0__Lean_Meta_withNext___rarg___lambda__1___boxed(ptr noundef %0, ptr noundef %1, ptr noundef %2, ptr noundef %3, ptr noundef %4, ptr noundef %5, ptr noundef %6, ptr noundef %7) #1 {
  %9 = load ptr, ptr @l_Lean_instInhabitedExpr, align 8, !tbaa !10
  %10 = getelementptr i8, ptr %1, i64 8
  %.val.i.i = load i64, ptr %10, align 8, !tbaa !16
  %.not.i10 = icmp eq i64 %.val.i.i, 0
  br i1 %.not.i10, label %lean_array_uget.exit.i.i, label %11

11:                                               ; preds = %8
  %12 = ptrtoint ptr %9 to i64
  %13 = and i64 %12, 1
  %.not14.i.i = icmp eq i64 %13, 0
  br i1 %.not14.i.i, label %14, label %lean_dec.exit.i.i

14:                                               ; preds = %11
  %15 = load i32, ptr %9, align 4, !tbaa !4
  %16 = icmp sgt i32 %15, 1
  br i1 %16, label %17, label %19, !prof !9

17:                                               ; preds = %14
  %18 = add nsw i32 %15, -1
  store i32 %18, ptr %9, align 4, !tbaa !4
  br label %lean_dec.exit.i.i

19:                                               ; preds = %14
  %.not.i.i.i = icmp eq i32 %15, 0
  br i1 %.not.i.i.i, label %lean_dec.exit.i.i, label %20

20:                                               ; preds = %19
  tail call void @lean_dec_ref_cold(ptr noundef nonnull %9) #7
  br label %lean_dec.exit.i.i

lean_dec.exit.i.i:                                ; preds = %20, %19, %17, %11
  %21 = getelementptr inbounds nuw i8, ptr %1, i64 24
  %22 = load ptr, ptr %21, align 8, !tbaa !10
  %23 = ptrtoint ptr %22 to i64
  %24 = and i64 %23, 1
  %.not.i11.i.i = icmp eq i64 %24, 0
  br i1 %.not.i11.i.i, label %25, label %l___private_Lean_Meta_CongrTheorems_0__Lean_Meta_withNext___rarg___lambda__1.exit

25:                                               ; preds = %lean_dec.exit.i.i
  %.val.i.i.i.i = load i32, ptr %22, align 4, !tbaa !4
  %26 = icmp sgt i32 %.val.i.i.i.i, 0
  br i1 %26, label %27, label %29, !prof !9

27:                                               ; preds = %25
  %28 = add nuw i32 %.val.i.i.i.i, 1
  store i32 %28, ptr %22, align 4, !tbaa !4
  br label %l___private_Lean_Meta_CongrTheorems_0__Lean_Meta_withNext___rarg___lambda__1.exit

29:                                               ; preds = %25
  %.not.i.i.i.i = icmp eq i32 %.val.i.i.i.i, 0
  br i1 %.not.i.i.i.i, label %l___private_Lean_Meta_CongrTheorems_0__Lean_Meta_withNext___rarg___lambda__1.exit, label %30

30:                                               ; preds = %29
  tail call void @lean_inc_ref_cold(ptr noundef nonnull %22) #7
  br label %l___private_Lean_Meta_CongrTheorems_0__Lean_Meta_withNext___rarg___lambda__1.exit

lean_array_uget.exit.i.i:                         ; preds = %8
  %31 = tail call ptr @lean_array_get_panic(ptr noundef %9) #7
  br label %l___private_Lean_Meta_CongrTheorems_0__Lean_Meta_withNext___rarg___lambda__1.exit

l___private_Lean_Meta_CongrTheorems_0__Lean_Meta_withNext___rarg___lambda__1.exit: ; preds = %lean_dec.exit.i.i, %27, %29, %30, %lean_array_uget.exit.i.i
  %.1.i.i = phi ptr [ %31, %lean_array_uget.exit.i.i ], [ %22, %30 ], [ %22, %29 ], [ %22, %27 ], [ %22, %lean_dec.exit.i.i ]
  %32 = tail call ptr @lean_apply_7(ptr noundef %0, ptr noundef %.1.i.i, ptr noundef %2, ptr noundef %3, ptr noundef %4, ptr noundef %5, ptr noundef %6, ptr noundef %7) #7
  %33 = ptrtoint ptr %1 to i64
  %34 = and i64 %33, 1
  %.not = icmp eq i64 %34, 0
  br i1 %.not, label %35, label %lean_dec.exit

35:                                               ; preds = %l___private_Lean_Meta_CongrTheorems_0__Lean_Meta_withNext___rarg___lambda__1.exit
  %36 = load i32, ptr %1, align 4, !tbaa !4
  %37 = icmp sgt i32 %36, 1
  br i1 %37, label %38, label %40, !prof !9

38:                                               ; preds = %35
  %39 = add nsw i32 %36, -1
  store i32 %39, ptr %1, align 4, !tbaa !4
  br label %lean_dec.exit

40:                                               ; preds = %35
  %.not.i = icmp eq i32 %36, 0
  br i1 %.not.i, label %lean_dec.exit, label %41

41:                                               ; preds = %40
  tail call void @lean_dec_ref_cold(ptr noundef nonnull %1) #7
  br label %lean_dec.exit

lean_dec.exit:                                    ; preds = %41, %40, %38, %l___private_Lean_Meta_CongrTheorems_0__Lean_Meta_withNext___rarg___lambda__1.exit
  ret ptr %32
}